target datalayout = "e-m:e-p270:32:32-p271:32:32-p272:64:64-i64:64-i128:128-f80:128-n8:16:32:64-S128"
target triple = "x86_64-pc-linux-gnu"

%"class.cvc5::internal::NodeTemplate" = type { ptr }
%"class.cvc5::internal::expr::NodeValue" = type { i64, i64, ptr, [0 x ptr] }

; Function Attrs: mustprogress nounwind uwtable
define hidden noundef zeroext i1 @_ZN4cvc58internal6theory11quantifiers4inst15TriggerTermInfo19isAtomicTriggerKindENS0_4kind6Kind_tE(i32 noundef %0) #5 align 2 {
  %2 = alloca i32, align 4
  store i32 %0, ptr %2, align 4, !tbaa !24
  %3 = load i32, ptr %2, align 4, !tbaa !24
  %4 = icmp eq i32 %3, 27
  br i1 %4, label %56, label %5

5:                                                ; preds = %1
  %6 = load i32, ptr %2, align 4, !tbaa !24
  %7 = icmp eq i32 %6, 215
  br i1 %7, label %56, label %8

8:                                                ; preds = %5
  %9 = load i32, ptr %2, align 4, !tbaa !24
  %10 = icmp eq i32 %9, 216
  br i1 %10, label %56, label %11

11:                                               ; preds = %8
  %12 = load i32, ptr %2, align 4, !tbaa !24
  %13 = icmp eq i32 %12, 224
  br i1 %13, label %56, label %14

14:                                               ; preds = %11
  %15 = load i32, ptr %2, align 4, !tbaa !24
  %16 = icmp eq i32 %15, 225
  br i1 %16, label %56, label %17

17:                                               ; preds = %14
  %18 = load i32, ptr %2, align 4, !tbaa !24
  %19 = icmp eq i32 %18, 226
  br i1 %19, label %56, label %20

20:                                               ; preds = %17
  %21 = load i32, ptr %2, align 4, !tbaa !24
  %22 = icmp eq i32 %21, 254
  br i1 %22, label %56, label %23

23:                                               ; preds = %20
  %24 = load i32, ptr %2, align 4, !tbaa !24
  %25 = icmp eq i32 %24, 255
  br i1 %25, label %56, label %26

26:                                               ; preds = %23
  %27 = load i32, ptr %2, align 4, !tbaa !24
  %28 = icmp eq i32 %27, 257
  br i1 %28, label %56, label %29

29:                                               ; preds = %26
  %30 = load i32, ptr %2, align 4, !tbaa !24
  %31 = icmp eq i32 %30, 256
  br i1 %31, label %56, label %32

32:                                               ; preds = %29
  %33 = load i32, ptr %2, align 4, !tbaa !24
  %34 = icmp eq i32 %33, 258
  br i1 %34, label %56, label %35

35:                                               ; preds = %32
  %36 = load i32, ptr %2, align 4, !tbaa !24
  %37 = icmp eq i32 %36, 259
  br i1 %37, label %56, label %38

38:                                               ; preds = %35
  %39 = load i32, ptr %2, align 4, !tbaa !24
  %40 = icmp eq i32 %39, 248
  br i1 %40, label %56, label %41

41:                                               ; preds = %38
  %42 = load i32, ptr %2, align 4, !tbaa !24
  %43 = icmp eq i32 %42, 36
  br i1 %43, label %56, label %44

44:                                               ; preds = %41
  %45 = load i32, ptr %2, align 4, !tbaa !24
  %46 = icmp eq i32 %45, 38
  br i1 %46, label %56, label %47

47:                                               ; preds = %44
  %48 = load i32, ptr %2, align 4, !tbaa !24
  %49 = icmp eq i32 %48, 30
  br i1 %49, label %56, label %50

50:                                               ; preds = %47
  %51 = load i32, ptr %2, align 4, !tbaa !24
  %52 = icmp eq i32 %51, 317
  br i1 %52, label %56, label %53

53:                                               ; preds = %50
  %54 = load i32, ptr %2, align 4, !tbaa !24
  %55 = icmp eq i32 %54, 345
  br label %56

56:                                               ; preds = %53, %50, %47, %44, %41, %38, %35, %32, %29, %26, %23, %20, %17, %14, %11, %8, %5, %1
  %57 = phi i1 [ true, %50 ], [ true, %47 ], [ true, %44 ], [ true, %41 ], [ true, %38 ], [ true, %35 ], [ true, %32 ], [ true, %29 ], [ true, %26 ], [ true, %23 ], [ true, %20 ], [ true, %17 ], [ true, %14 ], [ true, %11 ], [ true, %8 ], [ true, %5 ], [ true, %1 ], [ %55, %53 ]
  ret i1 %57
}

; Function Attrs: mustprogress uwtable
define linkonce_odr hidden void @_ZN4cvc58internal4expr9NodeValue3incEv(ptr noundef nonnull align 8 dereferenceable(24) %0) #4 comdat align 2 {
  %2 = alloca ptr, align 8
  store ptr %0, ptr %2, align 8, !tbaa !47
  %3 = load ptr, ptr %2, align 8
  %4 = load i64, ptr %3, align 8
  %5 = lshr i64 %4, 40
  %6 = and i64 %5, 1048575
  %7 = trunc i64 %6 to i32
  %8 = icmp ult i32 %7, 1048574
  %9 = zext i1 %8 to i64
  %10 = call i64 @llvm.expect.i64(i64 %9, i64 1)
  %11 = icmp ne i64 %10, 0
  br i1 %11, label %12, label %24

12:                                               ; preds = %1
  %13 = load i64, ptr %3, align 8
  %14 = lshr i64 %13, 40
  %15 = and i64 %14, 1048575
  %16 = trunc i64 %15 to i32
  %17 = add i32 %16, 1
  %18 = zext i32 %17 to i64
  %19 = load i64, ptr %3, align 8
  %20 = and i64 %18, 1048575
  %21 = shl i64 %20, 40
  %22 = and i64 %19, -1152920405095219201
  %23 = or i64 %22, %21
  store i64 %23, ptr %3, align 8
  br label %46

24:                                               ; preds = %1
  %25 = load i64, ptr %3, align 8
  %26 = lshr i64 %25, 40
  %27 = and i64 %26, 1048575
  %28 = trunc i64 %27 to i32
  %29 = icmp eq i32 %28, 1048574
  %30 = zext i1 %29 to i64
  %31 = call i64 @llvm.expect.i64(i64 %30, i64 0)
  %32 = icmp ne i64 %31, 0
  br i1 %32, label %33, label %45

33:                                               ; preds = %24
  %34 = load i64, ptr %3, align 8
  %35 = lshr i64 %34, 40
  %36 = and i64 %35, 1048575
  %37 = trunc i64 %36 to i32
  %38 = add i32 %37, 1
  %39 = zext i32 %38 to i64
  %40 = load i64, ptr %3, align 8
  %41 = and i64 %39, 1048575
  %42 = shl i64 %41, 40
  %43 = and i64 %40, -1152920405095219201
  %44 = or i64 %43, %42
  store i64 %44, ptr %3, align 8
  call void @_ZN4cvc58internal4expr9NodeValue20markRefCountMaxedOutEv(ptr noundef nonnull align 8 dereferenceable(24) %3)
  br label %45

45:                                               ; preds = %33, %24
  br label %46

46:                                               ; preds = %45, %12
  ret void
}

; Function Attrs: inlinehint mustprogress nounwind uwtable
define linkonce_odr hidden void @_ZNK4cvc58internal12NodeTemplateILb1EE21assertTNodeNotExpiredEv(ptr noundef nonnull align 8 dereferenceable(8) %0) #8 comdat align 2 {
  %2 = alloca ptr, align 8
  store ptr %0, ptr %2, align 8, !tbaa !8
  ret void
}

; Function Attrs: mustprogress uwtable
define hidden noundef zeroext i1 @_ZN4cvc58internal6theory11quantifiers4inst15TriggerTermInfo15isAtomicTriggerENS0_12NodeTemplateILb1EEE(ptr noundef %0) #4 align 2 {
  %2 = alloca ptr, align 8
  store ptr %0, ptr %2, align 8, !tbaa !8
  %3 = call noundef i32 @_ZNK4cvc58internal12NodeTemplateILb1EE7getKindEv(ptr noundef nonnull align 8 dereferenceable(8) %0)
  %4 = call noundef zeroext i1 @_ZN4cvc58internal6theory11quantifiers4inst15TriggerTermInfo19isAtomicTriggerKindENS0_4kind6Kind_tE(i32 noundef %3)
  ret i1 %4
}

; Function Attrs: mustprogress uwtable
define linkonce_odr hidden void @_ZN4cvc58internal12NodeTemplateILb1EEC2ERKS2_(ptr noundef nonnull align 8 dereferenceable(8) %0, ptr noundef nonnull align 8 dereferenceable(8) %1) unnamed_addr #4 comdat align 2 {
  %3 = alloca ptr, align 8
  %4 = alloca ptr, align 8
  store ptr %0, ptr %3, align 8, !tbaa !8
  store ptr %1, ptr %4, align 8, !tbaa !8
  %5 = load ptr, ptr %3, align 8
  %6 = load ptr, ptr %4, align 8, !tbaa !8
  %7 = getelementptr inbounds nuw %"class.cvc5::internal::NodeTemplate", ptr %6, i32 0, i32 0
  %8 = load ptr, ptr %7, align 8, !tbaa !23
  %9 = getelementptr inbounds nuw %"class.cvc5::internal::NodeTemplate", ptr %5, i32 0, i32 0
  store ptr %8, ptr %9, align 8, !tbaa !23
  %10 = getelementptr inbounds nuw %"class.cvc5::internal::NodeTemplate", ptr %5, i32 0, i32 0
  %11 = load ptr, ptr %10, align 8, !tbaa !23
  call void @_ZN4cvc58internal4expr9NodeValue3incEv(ptr noundef nonnull align 8 dereferenceable(24) %11)
  ret void
}

; Function Attrs: inlinehint mustprogress uwtable
define linkonce_odr hidden noundef i32 @_ZNK4cvc58internal12NodeTemplateILb1EE7getKindEv(ptr noundef nonnull align 8 dereferenceable(8) %0) #6 comdat align 2 {
  %2 = alloca ptr, align 8
  store ptr %0, ptr %2, align 8, !tbaa !8
  %3 = load ptr, ptr %2, align 8
  call void @_ZNK4cvc58internal12NodeTemplateILb1EE21assertTNodeNotExpiredEv(ptr noundef nonnull align 8 dereferenceable(8) %3)
  %4 = getelementptr inbounds nuw %"class.cvc5::internal::NodeTemplate", ptr %3, i32 0, i32 0
  %5 = load ptr, ptr %4, align 8, !tbaa !23
  %6 = getelementptr inbounds nuw %"class.cvc5::internal::expr::NodeValue", ptr %5, i32 0, i32 1
  %7 = load i64, ptr %6, align 8
  %8 = and i64 %7, 1023
  %9 = trunc i64 %8 to i32
  ret i32 %9
}

; Function Attrs: mustprogress uwtable
define hidden noundef i32 @_ZN4cvc58internal6theory11quantifiers4inst15TriggerTermInfo16getTriggerWeightENS0_12NodeTemplateILb1EEE(ptr noundef %0) #4 align 2 personality ptr @__gxx_personality_v0 {
  %2 = alloca i32, align 4
  %3 = alloca ptr, align 8
  %4 = alloca %"class.cvc5::internal::NodeTemplate", align 8
  %5 = alloca ptr, align 8
  %6 = alloca i32, align 4
  %7 = alloca %"class.cvc5::internal::NodeTemplate", align 8
  %8 = alloca i1, align 1
  store ptr %0, ptr %3, align 8, !tbaa !8
  %9 = call noundef i32 @_ZNK4cvc58internal12NodeTemplateILb1EE7getKindEv(ptr noundef nonnull align 8 dereferenceable(8) %0)
  %10 = icmp eq i32 %9, 27
  br i1 %10, label %11, label %12

11:                                               ; preds = %1
  store i32 0, ptr %2, align 4
  br label %38

12:                                               ; preds = %1
  call void @_ZN4cvc58internal12NodeTemplateILb1EEC2ERKS2_(ptr noundef nonnull align 8 dereferenceable(8) %4, ptr noundef nonnull align 8 dereferenceable(8) %0)
  store i1 false, ptr %8, align 1
  %13 = invoke noundef zeroext i1 @_ZN4cvc58internal6theory11quantifiers4inst15TriggerTermInfo15isAtomicTriggerENS0_12NodeTemplateILb1EEE(ptr noundef %4)
          to label %14 unwind label %25

14:                                               ; preds = %12
  br i1 %13, label %19, label %15

15:                                               ; preds = %14
  invoke void @_ZN4cvc58internal12NodeTemplateILb1EEC2ERKS2_(ptr noundef nonnull align 8 dereferenceable(8) %7, ptr noundef nonnull align 8 dereferenceable(8) %0)
          to label %16 unwind label %25

16:                                               ; preds = %15
  store i1 true, ptr %8, align 1
  %17 = invoke noundef zeroext i1 @_ZN4cvc58internal6theory11quantifiers4inst15TriggerTermInfo23isUsableRelationTriggerENS0_12NodeTemplateILb1EEE(ptr noundef %7)
          to label %18 unwind label %29

18:                                               ; preds = %16
  br label %19

19:                                               ; preds = %18, %14
  %20 = phi i1 [ true, %14 ], [ %17, %18 ]
  %21 = load i1, ptr %8, align 1
  br i1 %21, label %22, label %23

22:                                               ; preds = %19
  call void @_ZN4cvc58internal12NodeTemplateILb1EED2Ev(ptr noundef nonnull align 8 dereferenceable(8) %7) #3
  br label %23

23:                                               ; preds = %22, %19
  call void @_ZN4cvc58internal12NodeTemplateILb1EED2Ev(ptr noundef nonnull align 8 dereferenceable(8) %4) #3
  br i1 %20, label %24, label %37

24:                                               ; preds = %23
  store i32 1, ptr %2, align 4
  br label %38

25:                                               ; preds = %15, %12
  %26 = landingpad { ptr, i32 }
          cleanup
  %27 = extractvalue { ptr, i32 } %26, 0
  store ptr %27, ptr %5, align 8
  %28 = extractvalue { ptr, i32 } %26, 1
  store i32 %28, ptr %6, align 4
  br label %36

29:                                               ; preds = %16
  %30 = landingpad { ptr, i32 }
          cleanup
  %31 = extractvalue { ptr, i32 } %30, 0
  store ptr %31, ptr %5, align 8
  %32 = extractvalue { ptr, i32 } %30, 1
  store i32 %32, ptr %6, align 4
  %33 = load i1, ptr %8, align 1
  br i1 %33, label %34, label %35

34:                                               ; preds = %29
  call void @_ZN4cvc58internal12NodeTemplateILb1EED2Ev(ptr noundef nonnull align 8 dereferenceable(8) %7) #3
  br label %35

35:                                               ; preds = %34, %29
  br label %36

36:                                               ; preds = %35, %25
  call void @_ZN4cvc58internal12NodeTemplateILb1EED2Ev(ptr noundef nonnull align 8 dereferenceable(8) %4) #3
  br label %40

37:                                               ; preds = %23
  store i32 2, ptr %2, align 4
  br label %38

38:                                               ; preds = %37, %24, %11
  %39 = load i32, ptr %2, align 4
  ret i32 %39

40:                                               ; preds = %36
  %41 = load ptr, ptr %5, align 8
  %42 = load i32, ptr %6, align 4
  %43 = insertvalue { ptr, i32 } poison, ptr %41, 0
  %44 = insertvalue { ptr, i32 } %43, i32 %42, 1
  resume { ptr, i32 } %44
}