; Function Attrs: mustprogress uwtable
define hidden noundef range(i32 0, 3) i32 @_ZN4cvc58internal6theory11quantifiers4inst15TriggerTermInfo16getTriggerWeightENS0_12NodeTemplateILb1EEE(ptr noundef readonly captures(none) %0) local_unnamed_addr #3 align 2 personality ptr @__gxx_personality_v0 {
  %2 = alloca %"class.cvc5::internal::NodeTemplate", align 8
  %3 = alloca %"class.cvc5::internal::NodeTemplate", align 8
  %4 = load ptr, ptr %0, align 8, !tbaa !8
  %5 = getelementptr inbounds nuw i8, ptr %4, i64 8
  %6 = load i64, ptr %5, align 8
  %7 = and i64 %6, 1023
  %8 = icmp eq i64 %7, 27
  br i1 %8, label %74, label %9

9:                                                ; preds = %1
  store ptr %4, ptr %2, align 8, !tbaa !8
  %10 = load i64, ptr %4, align 8
  %11 = lshr i64 %10, 40
  %12 = trunc nuw nsw i64 %11 to i32
  %13 = and i32 %12, 1048575
  %14 = icmp samesign ult i32 %13, 1048574
  br i1 %14, label %15, label %20, !prof !11

15:                                               ; preds = %9
  %16 = add i64 %10, 1099511627776
  %17 = and i64 %16, 1152920405095219200
  %18 = and i64 %10, -1152920405095219201
  %19 = or disjoint i64 %17, %18
  store i64 %19, ptr %4, align 8
  br label %_ZN4cvc58internal12NodeTemplateILb1EEC2ERKS2_.exit

20:                                               ; preds = %9
  %21 = icmp eq i32 %13, 1048574
  br i1 %21, label %22, label %_ZN4cvc58internal12NodeTemplateILb1EEC2ERKS2_.exit, !prof !12

22:                                               ; preds = %20
  %23 = or i64 %10, 1152920405095219200
  store i64 %23, ptr %4, align 8
  tail call void @_ZN4cvc58internal4expr9NodeValue20markRefCountMaxedOutEv(ptr noundef nonnull align 8 dereferenceable(24) %4)
  %.pre = load i64, ptr %5, align 8
  br label %_ZN4cvc58internal12NodeTemplateILb1EEC2ERKS2_.exit

_ZN4cvc58internal12NodeTemplateILb1EEC2ERKS2_.exit: ; preds = %15, %20, %22
  %24 = phi i64 [ %6, %15 ], [ %6, %20 ], [ %.pre, %22 ]
  %25 = trunc i64 %24 to i32
  %26 = and i32 %25, 1023
  switch i32 %26, label %_ZN4cvc58internal6theory11quantifiers4inst15TriggerTermInfo15isAtomicTriggerENS0_12NodeTemplateILb1EEE.exit [
    i32 317, label %_ZN4cvc58internal12NodeTemplateILb1EED2Ev.exit
    i32 259, label %_ZN4cvc58internal12NodeTemplateILb1EED2Ev.exit
    i32 258, label %_ZN4cvc58internal12NodeTemplateILb1EED2Ev.exit
    i32 257, label %_ZN4cvc58internal12NodeTemplateILb1EED2Ev.exit
    i32 256, label %_ZN4cvc58internal12NodeTemplateILb1EED2Ev.exit
    i32 255, label %_ZN4cvc58internal12NodeTemplateILb1EED2Ev.exit
    i32 254, label %_ZN4cvc58internal12NodeTemplateILb1EED2Ev.exit
    i32 248, label %_ZN4cvc58internal12NodeTemplateILb1EED2Ev.exit
    i32 226, label %_ZN4cvc58internal12NodeTemplateILb1EED2Ev.exit
    i32 225, label %_ZN4cvc58internal12NodeTemplateILb1EED2Ev.exit
    i32 224, label %_ZN4cvc58internal12NodeTemplateILb1EED2Ev.exit
    i32 216, label %_ZN4cvc58internal12NodeTemplateILb1EED2Ev.exit
    i32 215, label %_ZN4cvc58internal12NodeTemplateILb1EED2Ev.exit
    i32 38, label %_ZN4cvc58internal12NodeTemplateILb1EED2Ev.exit
    i32 36, label %_ZN4cvc58internal12NodeTemplateILb1EED2Ev.exit
    i32 30, label %_ZN4cvc58internal12NodeTemplateILb1EED2Ev.exit
    i32 27, label %_ZN4cvc58internal12NodeTemplateILb1EED2Ev.exit
    i32 345, label %_ZN4cvc58internal12NodeTemplateILb1EED2Ev.exit
  ]

_ZN4cvc58internal6theory11quantifiers4inst15TriggerTermInfo15isAtomicTriggerENS0_12NodeTemplateILb1EEE.exit: ; preds = %_ZN4cvc58internal12NodeTemplateILb1EEC2ERKS2_.exit
  %27 = load ptr, ptr %0, align 8, !tbaa !8
  store ptr %27, ptr %3, align 8, !tbaa !8
  %28 = load i64, ptr %27, align 8
  %29 = lshr i64 %28, 40
  %30 = trunc nuw nsw i64 %29 to i32
  %31 = and i32 %30, 1048575
  %32 = icmp samesign ult i32 %31, 1048574
  br i1 %32, label %33, label %38, !prof !11

33:                                               ; preds = %_ZN4cvc58internal6theory11quantifiers4inst15TriggerTermInfo15isAtomicTriggerENS0_12NodeTemplateILb1EEE.exit
  %34 = add i64 %28, 1099511627776
  %35 = and i64 %34, 1152920405095219200
  %36 = and i64 %28, -1152920405095219201
  %37 = or disjoint i64 %35, %36
  store i64 %37, ptr %27, align 8
  br label %_ZN4cvc58internal12NodeTemplateILb1EEC2ERKS2_.exit8

38:                                               ; preds = %_ZN4cvc58internal6theory11quantifiers4inst15TriggerTermInfo15isAtomicTriggerENS0_12NodeTemplateILb1EEE.exit
  %39 = icmp eq i32 %31, 1048574
  br i1 %39, label %40, label %_ZN4cvc58internal12NodeTemplateILb1EEC2ERKS2_.exit8, !prof !12

40:                                               ; preds = %38
  %41 = or i64 %28, 1152920405095219200
  store i64 %41, ptr %27, align 8
  invoke void @_ZN4cvc58internal4expr9NodeValue20markRefCountMaxedOutEv(ptr noundef nonnull align 8 dereferenceable(24) %27)
          to label %_ZN4cvc58internal12NodeTemplateILb1EEC2ERKS2_.exit8 unwind label %69

_ZN4cvc58internal12NodeTemplateILb1EEC2ERKS2_.exit8: ; preds = %38, %33, %40
  %42 = invoke noundef zeroext i1 @_ZN4cvc58internal6theory11quantifiers4inst15TriggerTermInfo23isUsableRelationTriggerENS0_12NodeTemplateILb1EEE(ptr noundef nonnull %3)
          to label %43 unwind label %71

43:                                               ; preds = %_ZN4cvc58internal12NodeTemplateILb1EEC2ERKS2_.exit8
  %44 = load i64, ptr %27, align 8
  %45 = and i64 %44, 1152920405095219200
  %.not.i.i = icmp eq i64 %45, 1152920405095219200
  br i1 %.not.i.i, label %_ZN4cvc58internal12NodeTemplateILb1EED2Ev.exit, label %46, !prof !12

46:                                               ; preds = %43
  %47 = add i64 %44, 1152920405095219200
  %48 = and i64 %47, 1152920405095219200
  %49 = and i64 %44, -1152920405095219201
  %50 = or disjoint i64 %48, %49
  store i64 %50, ptr %27, align 8
  %51 = icmp eq i64 %48, 0
  br i1 %51, label %52, label %_ZN4cvc58internal12NodeTemplateILb1EED2Ev.exit, !prof !12

52:                                               ; preds = %46
  invoke void @_ZN4cvc58internal4expr9NodeValue15markForDeletionEv(ptr noundef nonnull align 8 dereferenceable(24) %27)
          to label %_ZN4cvc58internal12NodeTemplateILb1EED2Ev.exit unwind label %53

53:                                               ; preds = %52
  %54 = landingpad { ptr, i32 }
          catch ptr null
  %55 = extractvalue { ptr, i32 } %54, 0
  tail call void @__clang_call_terminate(ptr %55) #19
  unreachable

_ZN4cvc58internal12NodeTemplateILb1EED2Ev.exit:   ; preds = %_ZN4cvc58internal12NodeTemplateILb1EEC2ERKS2_.exit, %_ZN4cvc58internal12NodeTemplateILb1EEC2ERKS2_.exit, %_ZN4cvc58internal12NodeTemplateILb1EEC2ERKS2_.exit, %_ZN4cvc58internal12NodeTemplateILb1EEC2ERKS2_.exit, %_ZN4cvc58internal12NodeTemplateILb1EEC2ERKS2_.exit, %_ZN4cvc58internal12NodeTemplateILb1EEC2ERKS2_.exit, %_ZN4cvc58internal12NodeTemplateILb1EEC2ERKS2_.exit, %_ZN4cvc58internal12NodeTemplateILb1EEC2ERKS2_.exit, %_ZN4cvc58internal12NodeTemplateILb1EEC2ERKS2_.exit, %_ZN4cvc58internal12NodeTemplateILb1EEC2ERKS2_.exit, %_ZN4cvc58internal12NodeTemplateILb1EEC2ERKS2_.exit, %_ZN4cvc58internal12NodeTemplateILb1EEC2ERKS2_.exit, %_ZN4cvc58internal12NodeTemplateILb1EEC2ERKS2_.exit, %_ZN4cvc58internal12NodeTemplateILb1EEC2ERKS2_.exit, %_ZN4cvc58internal12NodeTemplateILb1EEC2ERKS2_.exit, %_ZN4cvc58internal12NodeTemplateILb1EEC2ERKS2_.exit, %_ZN4cvc58internal12NodeTemplateILb1EEC2ERKS2_.exit, %_ZN4cvc58internal12NodeTemplateILb1EEC2ERKS2_.exit, %52, %46, %43
  %56 = phi i1 [ %42, %43 ], [ %42, %46 ], [ %42, %52 ], [ true, %_ZN4cvc58internal12NodeTemplateILb1EEC2ERKS2_.exit ], [ true, %_ZN4cvc58internal12NodeTemplateILb1EEC2ERKS2_.exit ], [ true, %_ZN4cvc58internal12NodeTemplateILb1EEC2ERKS2_.exit ], [ true, %_ZN4cvc58internal12NodeTemplateILb1EEC2ERKS2_.exit ], [ true, %_ZN4cvc58internal12NodeTemplateILb1EEC2ERKS2_.exit ], [ true, %_ZN4cvc58internal12NodeTemplateILb1EEC2ERKS2_.exit ], [ true, %_ZN4cvc58internal12NodeTemplateILb1EEC2ERKS2_.exit ], [ true, %_ZN4cvc58internal12NodeTemplateILb1EEC2ERKS2_.exit ], [ true, %_ZN4cvc58internal12NodeTemplateILb1EEC2ERKS2_.exit ], [ true, %_ZN4cvc58internal12NodeTemplateILb1EEC2ERKS2_.exit ], [ true, %_ZN4cvc58internal12NodeTemplateILb1EEC2ERKS2_.exit ], [ true, %_ZN4cvc58internal12NodeTemplateILb1EEC2ERKS2_.exit ], [ true, %_ZN4cvc58internal12NodeTemplateILb1EEC2ERKS2_.exit ], [ true, %_ZN4cvc58internal12NodeTemplateILb1EEC2ERKS2_.exit ], [ true, %_ZN4cvc58internal12NodeTemplateILb1EEC2ERKS2_.exit ], [ true, %_ZN4cvc58internal12NodeTemplateILb1EEC2ERKS2_.exit ], [ true, %_ZN4cvc58internal12NodeTemplateILb1EEC2ERKS2_.exit ], [ true, %_ZN4cvc58internal12NodeTemplateILb1EEC2ERKS2_.exit ]
  %57 = load i64, ptr %4, align 8
  %58 = and i64 %57, 1152920405095219200
  %.not.i.i9 = icmp eq i64 %58, 1152920405095219200
  br i1 %.not.i.i9, label %_ZN4cvc58internal12NodeTemplateILb1EED2Ev.exit10, label %59, !prof !12

59:                                               ; preds = %_ZN4cvc58internal12NodeTemplateILb1EED2Ev.exit
  %60 = add i64 %57, 1152920405095219200
  %61 = and i64 %60, 1152920405095219200
  %62 = and i64 %57, -1152920405095219201
  %63 = or disjoint i64 %61, %62
  store i64 %63, ptr %4, align 8
  %64 = icmp eq i64 %61, 0
  br i1 %64, label %65, label %_ZN4cvc58internal12NodeTemplateILb1EED2Ev.exit10, !prof !12

65:                                               ; preds = %59
  invoke void @_ZN4cvc58internal4expr9NodeValue15markForDeletionEv(ptr noundef nonnull align 8 dereferenceable(24) %4)
          to label %_ZN4cvc58internal12NodeTemplateILb1EED2Ev.exit10 unwind label %66

66:                                               ; preds = %65
  %67 = landingpad { ptr, i32 }
          catch ptr null
  %68 = extractvalue { ptr, i32 } %67, 0
  tail call void @__clang_call_terminate(ptr %68) #19
  unreachable

_ZN4cvc58internal12NodeTemplateILb1EED2Ev.exit10: ; preds = %_ZN4cvc58internal12NodeTemplateILb1EED2Ev.exit, %59, %65
  %. = select i1 %56, i32 1, i32 2
  br label %74

69:                                               ; preds = %40
  %70 = landingpad { ptr, i32 }
          cleanup
  br label %73

71:                                               ; preds = %_ZN4cvc58internal12NodeTemplateILb1EEC2ERKS2_.exit8
  %72 = landingpad { ptr, i32 }
          cleanup
  call void @_ZN4cvc58internal12NodeTemplateILb1EED2Ev(ptr noundef nonnull align 8 dereferenceable(8) %3) #20
  br label %73

73:                                               ; preds = %71, %69
  %.pn = phi { ptr, i32 } [ %72, %71 ], [ %70, %69 ]
  call void @_ZN4cvc58internal12NodeTemplateILb1EED2Ev(ptr noundef nonnull align 8 dereferenceable(8) %2) #20
  resume { ptr, i32 } %.pn

74:                                               ; preds = %_ZN4cvc58internal12NodeTemplateILb1EED2Ev.exit10, %1
  %.06 = phi i32 [ 0, %1 ], [ %., %_ZN4cvc58internal12NodeTemplateILb1EED2Ev.exit10 ]
  ret i32 %.06
}